target datalayout = "e-m:e-p270:32:32-p271:32:32-p272:64:64-i64:64-i128:128-f80:128-n8:16:32:64-S128"
target triple = "x86_64-pc-linux-gnu"

%struct.hwloc_infos_s = type { ptr, i32, i32 }
%struct.hwloc_obj = type { i32, ptr, i32, ptr, i64, ptr, i32, i32, ptr, ptr, ptr, i32, ptr, ptr, i32, ptr, ptr, ptr, i32, i32, ptr, i32, ptr, i32, ptr, ptr, ptr, ptr, ptr, %struct.hwloc_infos_s, ptr, i64 }

@.str.81 = private unnamed_addr constant [4 x i8] c":%u\00", align 1
@.str.82 = private unnamed_addr constant [8 x i8] c"Cache%s\00", align 1
@.str.83 = private unnamed_addr constant [9 x i8] c"Socket%s\00", align 1
@.str.84 = private unnamed_addr constant [8 x i8] c"Group%s\00", align 1
@.str.85 = private unnamed_addr constant [5 x i8] c"%s%s\00", align 1

; Function Attrs: inlinehint nounwind uwtable
define internal i32 @hwloc__export_synthetic_update_status(ptr noundef %0, ptr noundef %1, ptr noundef %2, i32 noundef %3) #5 {
  %5 = alloca i32, align 4
  %6 = alloca ptr, align 8
  %7 = alloca ptr, align 8
  %8 = alloca ptr, align 8
  %9 = alloca i32, align 4
  store ptr %0, ptr %6, align 8, !tbaa !76
  store ptr %1, ptr %7, align 8, !tbaa !77
  store ptr %2, ptr %8, align 8, !tbaa !79
  store i32 %3, ptr %9, align 4, !tbaa !14
  %10 = load i32, ptr %9, align 4, !tbaa !14
  %11 = icmp slt i32 %10, 0
  br i1 %11, label %12, label %13

12:                                               ; preds = %4
  store i32 -1, ptr %5, align 4
  br label %46

13:                                               ; preds = %4
  %14 = load i32, ptr %9, align 4, !tbaa !14
  %15 = load ptr, ptr %6, align 8, !tbaa !76
  %16 = load i32, ptr %15, align 4, !tbaa !14
  %17 = add nsw i32 %16, %14
  store i32 %17, ptr %15, align 4, !tbaa !14
  %18 = load i32, ptr %9, align 4, !tbaa !14
  %19 = sext i32 %18 to i64
  %20 = load ptr, ptr %8, align 8, !tbaa !79
  %21 = load i64, ptr %20, align 8, !tbaa !10
  %22 = icmp sge i64 %19, %21
  br i1 %22, label %23, label %35

23:                                               ; preds = %13
  %24 = load ptr, ptr %8, align 8, !tbaa !79
  %25 = load i64, ptr %24, align 8, !tbaa !10
  %26 = icmp sgt i64 %25, 0
  br i1 %26, label %27, label %32

27:                                               ; preds = %23
  %28 = load ptr, ptr %8, align 8, !tbaa !79
  %29 = load i64, ptr %28, align 8, !tbaa !10
  %30 = trunc i64 %29 to i32
  %31 = sub nsw i32 %30, 1
  br label %33

32:                                               ; preds = %23
  br label %33

33:                                               ; preds = %32, %27
  %34 = phi i32 [ %31, %27 ], [ 0, %32 ]
  store i32 %34, ptr %9, align 4, !tbaa !14
  br label %35

35:                                               ; preds = %33, %13
  %36 = load i32, ptr %9, align 4, !tbaa !14
  %37 = load ptr, ptr %7, align 8, !tbaa !77
  %38 = load ptr, ptr %37, align 8, !tbaa !8
  %39 = sext i32 %36 to i64
  %40 = getelementptr inbounds i8, ptr %38, i64 %39
  store ptr %40, ptr %37, align 8, !tbaa !8
  %41 = load i32, ptr %9, align 4, !tbaa !14
  %42 = sext i32 %41 to i64
  %43 = load ptr, ptr %8, align 8, !tbaa !79
  %44 = load i64, ptr %43, align 8, !tbaa !10
  %45 = sub nsw i64 %44, %42
  store i64 %45, ptr %43, align 8, !tbaa !10
  store i32 0, ptr %5, align 4
  br label %46

46:                                               ; preds = %35, %12
  %47 = load i32, ptr %5, align 4
  ret i32 %47
}

; Function Attrs: inlinehint nounwind uwtable
define internal i32 @hwloc__obj_type_is_cache(i32 noundef %0) #5 {
  %2 = alloca i32, align 4
  store i32 %0, ptr %2, align 4, !tbaa !14
  %3 = load i32, ptr %2, align 4, !tbaa !14
  %4 = icmp uge i32 %3, 5
  br i1 %4, label %5, label %8

5:                                                ; preds = %1
  %6 = load i32, ptr %2, align 4, !tbaa !14
  %7 = icmp ule i32 %6, 12
  br label %8

8:                                                ; preds = %5, %1
  %9 = phi i1 [ false, %1 ], [ %7, %5 ]
  %10 = zext i1 %9 to i32
  ret i32 %10
}

; Function Attrs: nounwind uwtable
define internal i32 @hwloc__export_synthetic_obj(ptr noundef %0, i64 noundef %1, ptr noundef %2, i32 noundef %3, ptr noundef %4, i64 noundef %5) #0 {
  %7 = alloca i32, align 4
  %8 = alloca ptr, align 8
  %9 = alloca i64, align 8
  %10 = alloca ptr, align 8
  %11 = alloca i32, align 4
  %12 = alloca ptr, align 8
  %13 = alloca i64, align 8
  %14 = alloca [12 x i8], align 1
  %15 = alloca i64, align 8
  %16 = alloca ptr, align 8
  %17 = alloca i32, align 4
  %18 = alloca i32, align 4
  %19 = alloca [64 x i8], align 16
  %20 = alloca i32, align 4
  store ptr %0, ptr %8, align 8, !tbaa !3
  store i64 %1, ptr %9, align 8, !tbaa !10
  store ptr %2, ptr %10, align 8, !tbaa !12
  store i32 %3, ptr %11, align 4, !tbaa !14
  store ptr %4, ptr %12, align 8, !tbaa !8
  store i64 %5, ptr %13, align 8, !tbaa !10
  call void @llvm.lifetime.start.p0(i64 12, ptr %14) #13
  call void @llvm.memset.p0.i64(ptr align 1 %14, i8 0, i64 12, i1 false)
  call void @llvm.lifetime.start.p0(i64 8, ptr %15) #13
  %21 = load i64, ptr %13, align 8, !tbaa !10
  store i64 %21, ptr %15, align 8, !tbaa !10
  call void @llvm.lifetime.start.p0(i64 8, ptr %16) #13
  %22 = load ptr, ptr %12, align 8, !tbaa !8
  store ptr %22, ptr %16, align 8, !tbaa !8
  call void @llvm.lifetime.start.p0(i64 4, ptr %17) #13
  call void @llvm.lifetime.start.p0(i64 4, ptr %18) #13
  store i32 0, ptr %18, align 4, !tbaa !14
  %23 = load i32, ptr %11, align 4, !tbaa !14
  %24 = icmp ne i32 %23, -1
  br i1 %24, label %25, label %29

25:                                               ; preds = %6
  %26 = getelementptr inbounds [12 x i8], ptr %14, i64 0, i64 0
  %27 = load i32, ptr %11, align 4, !tbaa !14
  %28 = call i32 (ptr, i64, ptr, ...) @snprintf(ptr noundef %26, i64 noundef 12, ptr noundef @.str.81, i32 noundef %27) #13
  br label %29

29:                                               ; preds = %25, %6
  %30 = load ptr, ptr %10, align 8, !tbaa !12
  %31 = getelementptr inbounds nuw %struct.hwloc_obj, ptr %30, i32 0, i32 0
  %32 = load i32, ptr %31, align 8, !tbaa !46
  %33 = call i32 @hwloc__obj_type_is_cache(i32 noundef %32)
  %34 = icmp ne i32 %33, 0
  br i1 %34, label %35, label %44

35:                                               ; preds = %29
  %36 = load i64, ptr %9, align 8, !tbaa !10
  %37 = and i64 %36, 1
  %38 = icmp ne i64 %37, 0
  br i1 %38, label %39, label %44

39:                                               ; preds = %35
  %40 = load ptr, ptr %16, align 8, !tbaa !8
  %41 = load i64, ptr %15, align 8, !tbaa !10
  %42 = getelementptr inbounds [12 x i8], ptr %14, i64 0, i64 0
  %43 = call i32 (ptr, i64, ptr, ...) @snprintf(ptr noundef %40, i64 noundef %41, ptr noundef @.str.82, ptr noundef %42) #13
  store i32 %43, ptr %17, align 4, !tbaa !14
  br label %102

44:                                               ; preds = %35, %29
  %45 = load ptr, ptr %10, align 8, !tbaa !12
  %46 = getelementptr inbounds nuw %struct.hwloc_obj, ptr %45, i32 0, i32 0
  %47 = load i32, ptr %46, align 8, !tbaa !46
  %48 = icmp eq i32 %47, 1
  br i1 %48, label %49, label %58

49:                                               ; preds = %44
  %50 = load i64, ptr %9, align 8, !tbaa !10
  %51 = and i64 %50, 5
  %52 = icmp ne i64 %51, 0
  br i1 %52, label %53, label %58

53:                                               ; preds = %49
  %54 = load ptr, ptr %16, align 8, !tbaa !8
  %55 = load i64, ptr %15, align 8, !tbaa !10
  %56 = getelementptr inbounds [12 x i8], ptr %14, i64 0, i64 0
  %57 = call i32 (ptr, i64, ptr, ...) @snprintf(ptr noundef %54, i64 noundef %55, ptr noundef @.str.83, ptr noundef %56) #13
  store i32 %57, ptr %17, align 4, !tbaa !14
  br label %101

58:                                               ; preds = %49, %44
  %59 = load ptr, ptr %10, align 8, !tbaa !12
  %60 = getelementptr inbounds nuw %struct.hwloc_obj, ptr %59, i32 0, i32 0
  %61 = load i32, ptr %60, align 8, !tbaa !46
  %62 = icmp eq i32 %61, 2
  br i1 %62, label %63, label %72

63:                                               ; preds = %58
  %64 = load i64, ptr %9, align 8, !tbaa !10
  %65 = and i64 %64, 5
  %66 = icmp ne i64 %65, 0
  br i1 %66, label %67, label %72

67:                                               ; preds = %63
  %68 = load ptr, ptr %16, align 8, !tbaa !8
  %69 = load i64, ptr %15, align 8, !tbaa !10
  %70 = getelementptr inbounds [12 x i8], ptr %14, i64 0, i64 0
  %71 = call i32 (ptr, i64, ptr, ...) @snprintf(ptr noundef %68, i64 noundef %69, ptr noundef @.str.84, ptr noundef %70) #13
  store i32 %71, ptr %17, align 4, !tbaa !14
  br label %100

72:                                               ; preds = %63, %58
  %73 = load ptr, ptr %10, align 8, !tbaa !12
  %74 = getelementptr inbounds nuw %struct.hwloc_obj, ptr %73, i32 0, i32 0
  %75 = load i32, ptr %74, align 8, !tbaa !46
  %76 = icmp eq i32 %75, 13
  br i1 %76, label %81, label %77

77:                                               ; preds = %72
  %78 = load i64, ptr %9, align 8, !tbaa !10
  %79 = and i64 %78, 1
  %80 = icmp ne i64 %79, 0
  br i1 %80, label %81, label %90

81:                                               ; preds = %77, %72
  %82 = load ptr, ptr %16, align 8, !tbaa !8
  %83 = load i64, ptr %15, align 8, !tbaa !10
  %84 = load ptr, ptr %10, align 8, !tbaa !12
  %85 = getelementptr inbounds nuw %struct.hwloc_obj, ptr %84, i32 0, i32 0
  %86 = load i32, ptr %85, align 8, !tbaa !46
  %87 = call ptr @hwloc_obj_type_string(i32 noundef %86) #15
  %88 = getelementptr inbounds [12 x i8], ptr %14, i64 0, i64 0
  %89 = call i32 (ptr, i64, ptr, ...) @snprintf(ptr noundef %82, i64 noundef %83, ptr noundef @.str.85, ptr noundef %87, ptr noundef %88) #13
  store i32 %89, ptr %17, align 4, !tbaa !14
  br label %99

90:                                               ; preds = %77
  call void @llvm.lifetime.start.p0(i64 64, ptr %19) #13
  %91 = getelementptr inbounds [64 x i8], ptr %19, i64 0, i64 0
  %92 = load ptr, ptr %10, align 8, !tbaa !12
  %93 = call i32 @hwloc_obj_type_snprintf(ptr noundef %91, i64 noundef 64, ptr noundef %92, i64 noundef 2)
  %94 = load ptr, ptr %16, align 8, !tbaa !8
  %95 = load i64, ptr %15, align 8, !tbaa !10
  %96 = getelementptr inbounds [64 x i8], ptr %19, i64 0, i64 0
  %97 = getelementptr inbounds [12 x i8], ptr %14, i64 0, i64 0
  %98 = call i32 (ptr, i64, ptr, ...) @snprintf(ptr noundef %94, i64 noundef %95, ptr noundef @.str.85, ptr noundef %96, ptr noundef %97) #13
  store i32 %98, ptr %17, align 4, !tbaa !14
  call void @llvm.lifetime.end.p0(i64 64, ptr %19) #13
  br label %99

99:                                               ; preds = %90, %81
  br label %100

100:                                              ; preds = %99, %67
  br label %101

101:                                              ; preds = %100, %53
  br label %102

102:                                              ; preds = %101, %39
  %103 = load i32, ptr %17, align 4, !tbaa !14
  %104 = call i32 @hwloc__export_synthetic_update_status(ptr noundef %18, ptr noundef %16, ptr noundef %15, i32 noundef %103)
  %105 = icmp slt i32 %104, 0
  br i1 %105, label %106, label %107

106:                                              ; preds = %102
  store i32 -1, ptr %7, align 4
  store i32 1, ptr %20, align 4
  br label %125

107:                                              ; preds = %102
  %108 = load i64, ptr %9, align 8, !tbaa !10
  %109 = and i64 %108, 2
  %110 = icmp ne i64 %109, 0
  br i1 %110, label %123, label %111

111:                                              ; preds = %107
  %112 = load ptr, ptr %8, align 8, !tbaa !3
  %113 = load i64, ptr %9, align 8, !tbaa !10
  %114 = load ptr, ptr %10, align 8, !tbaa !12
  %115 = load ptr, ptr %16, align 8, !tbaa !8
  %116 = load i64, ptr %15, align 8, !tbaa !10
  %117 = call i32 @hwloc__export_synthetic_obj_attr(ptr noundef %112, i64 noundef %113, ptr noundef %114, ptr noundef %115, i64 noundef %116)
  store i32 %117, ptr %17, align 4, !tbaa !14
  %118 = load i32, ptr %17, align 4, !tbaa !14
  %119 = call i32 @hwloc__export_synthetic_update_status(ptr noundef %18, ptr noundef %16, ptr noundef %15, i32 noundef %118)
  %120 = icmp slt i32 %119, 0
  br i1 %120, label %121, label %122

121:                                              ; preds = %111
  store i32 -1, ptr %7, align 4
  store i32 1, ptr %20, align 4
  br label %125

122:                                              ; preds = %111
  br label %123

123:                                              ; preds = %122, %107
  %124 = load i32, ptr %18, align 4, !tbaa !14
  store i32 %124, ptr %7, align 4
  store i32 1, ptr %20, align 4
  br label %125

125:                                              ; preds = %123, %121, %106
  call void @llvm.lifetime.end.p0(i64 4, ptr %18) #13
  call void @llvm.lifetime.end.p0(i64 4, ptr %17) #13
  call void @llvm.lifetime.end.p0(i64 8, ptr %16) #13
  call void @llvm.lifetime.end.p0(i64 8, ptr %15) #13
  call void @llvm.lifetime.end.p0(i64 12, ptr %14) #13
  %126 = load i32, ptr %7, align 4
  ret i32 %126
}