; Function Attrs: nounwind uwtable
define internal fastcc range(i32 -1, -2147483648) i32 @hwloc__export_synthetic_obj(ptr noundef readonly captures(none) %0, i64 noundef %1, ptr noundef %2, i32 noundef %3, ptr noundef writeonly captures(none) %4, i64 noundef %5) unnamed_addr #0 {
  %7 = alloca [12 x i8], align 1
  %8 = alloca [64 x i8], align 16
  call void @llvm.lifetime.start.p0(i64 12, ptr nonnull %7) #22
  call void @llvm.memset.p0.i64(ptr noundef nonnull align 1 dereferenceable(12) %7, i8 0, i64 12, i1 false)
  %.not = icmp eq i32 %3, -1
  br i1 %.not, label %11, label %9

9:                                                ; preds = %6
  %10 = call i32 (ptr, i64, ptr, ...) @snprintf(ptr noundef nonnull dereferenceable(1) %7, i64 noundef 12, ptr noundef nonnull @.str.81, i32 noundef %3) #22
  br label %11

11:                                               ; preds = %9, %6
  %12 = load i32, ptr %2, align 8, !tbaa !50
  %13 = add i32 %12, -13
  %14 = icmp ult i32 %13, -8
  %15 = and i64 %1, 1
  %.not23 = icmp eq i64 %15, 0
  %or.cond = or i1 %.not23, %14
  br i1 %or.cond, label %18, label %16

16:                                               ; preds = %11
  %17 = call i32 (ptr, i64, ptr, ...) @snprintf(ptr noundef %4, i64 noundef %5, ptr noundef nonnull @.str.82, ptr noundef nonnull %7) #22
  br label %35

18:                                               ; preds = %11
  %19 = icmp ne i32 %12, 1
  %20 = and i64 %1, 5
  %.not24 = icmp eq i64 %20, 0
  %or.cond28 = or i1 %.not24, %19
  br i1 %or.cond28, label %23, label %21

21:                                               ; preds = %18
  %22 = call i32 (ptr, i64, ptr, ...) @snprintf(ptr noundef %4, i64 noundef %5, ptr noundef nonnull @.str.83, ptr noundef nonnull %7) #22
  br label %35

23:                                               ; preds = %18
  %24 = icmp ne i32 %12, 2
  %or.cond29 = or i1 %.not24, %24
  br i1 %or.cond29, label %27, label %25

25:                                               ; preds = %23
  %26 = call i32 (ptr, i64, ptr, ...) @snprintf(ptr noundef %4, i64 noundef %5, ptr noundef nonnull @.str.84, ptr noundef nonnull %7) #22
  br label %35

27:                                               ; preds = %23
  %28 = icmp ne i32 %12, 13
  %or.cond30 = and i1 %.not23, %28
  br i1 %or.cond30, label %32, label %29

29:                                               ; preds = %27
  %30 = tail call ptr @hwloc_obj_type_string(i32 noundef %12) #24
  %31 = call i32 (ptr, i64, ptr, ...) @snprintf(ptr noundef %4, i64 noundef %5, ptr noundef nonnull @.str.85, ptr noundef %30, ptr noundef nonnull %7) #22
  br label %35

32:                                               ; preds = %27
  call void @llvm.lifetime.start.p0(i64 64, ptr nonnull %8) #22
  %33 = call i32 @hwloc_obj_type_snprintf(ptr noundef nonnull %8, i64 noundef 64, ptr noundef nonnull %2, i64 noundef 2) #22
  %34 = call i32 (ptr, i64, ptr, ...) @snprintf(ptr noundef %4, i64 noundef %5, ptr noundef nonnull @.str.85, ptr noundef nonnull %8, ptr noundef nonnull %7) #22
  call void @llvm.lifetime.end.p0(i64 64, ptr nonnull %8) #22
  br label %35

35:                                               ; preds = %21, %29, %32, %25, %16
  %.0 = phi i32 [ %17, %16 ], [ %22, %21 ], [ %26, %25 ], [ %31, %29 ], [ %34, %32 ]
  %36 = icmp slt i32 %.0, 0
  br i1 %36, label %hwloc__export_synthetic_update_status.exit.thread, label %37

37:                                               ; preds = %35
  %38 = and i64 %1, 2
  %.not27 = icmp eq i64 %38, 0
  br i1 %.not27, label %39, label %hwloc__export_synthetic_update_status.exit.thread

39:                                               ; preds = %37
  %40 = zext nneg i32 %.0 to i64
  %.not.i = icmp sgt i64 %5, %40
  %41 = icmp sgt i64 %5, 0
  %42 = trunc nuw nsw i64 %5 to i32
  %43 = add nsw i32 %42, -1
  %44 = select i1 %41, i32 %43, i32 0
  %.0.i = select i1 %.not.i, i32 %.0, i32 %44
  %45 = zext nneg i32 %.0.i to i64
  %46 = sub nsw i64 %5, %45
  %47 = getelementptr inbounds nuw i8, ptr %4, i64 %45
  %48 = call fastcc i32 @hwloc__export_synthetic_obj_attr(ptr noundef %0, i64 noundef %1, ptr noundef nonnull %2, ptr noundef %47, i64 noundef %46)
  %49 = add nuw nsw i32 %48, %.0
  %.inv = icmp sgt i32 %48, -1
  %spec.select = select i1 %.inv, i32 %49, i32 -1
  br label %hwloc__export_synthetic_update_status.exit.thread

hwloc__export_synthetic_update_status.exit.thread: ; preds = %39, %35, %37
  %.020 = phi i32 [ %.0, %37 ], [ -1, %35 ], [ %spec.select, %39 ]
  call void @llvm.lifetime.end.p0(i64 12, ptr nonnull %7) #22
  ret i32 %.020
}